#include <math.h>
#include <stdio.h>
#include <stdlib.h>
#include <string.h>

int main()
{
	int n,k,i,szone[999],sztwo[999],a;
	scanf("%d %d",&n,&k);
	for(i=0;i<n;i++)
	{
		scanf("%d",&szone[i]);
		sztwo[i]=szone[i];
	}
    for(i=0;i<n;i++)
	{
       for(a=0;a<n;a++)
	   {
		   if(szone[i]+sztwo[a]==k)
		      break;
	   }
       if(szone[i]+sztwo[a]==k)
	   {
		   printf("yes");
		   break;
	   }
	   else
	   {
		   if(i!=n-1)
			   continue;
		   else
			printf("no");
	   }
	}
	return 0;
}

