; ModuleID = 'source-C-CXX/2/1401.c'
source_filename = "source-C-CXX/2/1401.c"
target datalayout = "e-m:e-p270:32:32-p271:32:32-p272:64:64-i64:64-f80:128-n8:16:32:64-S128"
target triple = "x86_64-pc-linux-gnu"

@.str = private unnamed_addr constant [6 x i8] c"%d %d\00", align 1
@.str.1 = private unnamed_addr constant [3 x i8] c"%d\00", align 1
@.str.2 = private unnamed_addr constant [4 x i8] c"yes\00", align 1
@.str.3 = private unnamed_addr constant [3 x i8] c"no\00", align 1

; Function Attrs: nofree nounwind sspstrong uwtable
define dso_local i32 @main() local_unnamed_addr #0 {
  %1 = alloca i32, align 4
  %2 = alloca i32, align 4
  %3 = alloca [999 x i32], align 16
  %4 = alloca [999 x i32], align 16
  %5 = bitcast i32* %1 to i8*
  call void @llvm.lifetime.start.p0i8(i64 4, i8* nonnull %5) #3
  %6 = bitcast i32* %2 to i8*
  call void @llvm.lifetime.start.p0i8(i64 4, i8* nonnull %6) #3
  %7 = bitcast [999 x i32]* %3 to i8*
  call void @llvm.lifetime.start.p0i8(i64 3996, i8* nonnull %7) #3
  %8 = bitcast [999 x i32]* %4 to i8*
  call void @llvm.lifetime.start.p0i8(i64 3996, i8* nonnull %8) #3
  %9 = call i32 (i8*, ...) @__isoc99_scanf(i8* getelementptr inbounds ([6 x i8], [6 x i8]* @.str, i64 0, i64 0), i32* nonnull %1, i32* nonnull %2)
  %10 = load i32, i32* %1, align 4, !tbaa !5
  %11 = icmp sgt i32 %10, 0
  br i1 %11, label %14, label %65

12:                                               ; preds = %14
  %13 = icmp sgt i32 %21, 0
  br i1 %13, label %24, label %65

14:                                               ; preds = %0, %14
  %15 = phi i64 [ %20, %14 ], [ 0, %0 ]
  %16 = getelementptr inbounds [999 x i32], [999 x i32]* %3, i64 0, i64 %15
  %17 = call i32 (i8*, ...) @__isoc99_scanf(i8* getelementptr inbounds ([3 x i8], [3 x i8]* @.str.1, i64 0, i64 0), i32* nonnull %16)
  %18 = load i32, i32* %16, align 4, !tbaa !5
  %19 = getelementptr inbounds [999 x i32], [999 x i32]* %4, i64 0, i64 %15
  store i32 %18, i32* %19, align 4, !tbaa !5
  %20 = add nuw nsw i64 %15, 1
  %21 = load i32, i32* %1, align 4, !tbaa !5
  %22 = sext i32 %21 to i64
  %23 = icmp slt i64 %20, %22
  br i1 %23, label %14, label %12, !llvm.loop !9

24:                                               ; preds = %12, %60
  %25 = phi i32 [ %61, %60 ], [ %21, %12 ]
  %26 = phi i64 [ %62, %60 ], [ 0, %12 ]
  %27 = load i32, i32* %2, align 4
  %28 = icmp sgt i32 %25, 0
  %29 = getelementptr inbounds [999 x i32], [999 x i32]* %3, i64 0, i64 %26
  %30 = load i32, i32* %29, align 4, !tbaa !5
  br i1 %28, label %31, label %44

31:                                               ; preds = %24
  %32 = zext i32 %25 to i64
  br label %33

33:                                               ; preds = %31, %39
  %34 = phi i64 [ 0, %31 ], [ %40, %39 ]
  %35 = getelementptr inbounds [999 x i32], [999 x i32]* %4, i64 0, i64 %34
  %36 = load i32, i32* %35, align 4, !tbaa !5
  %37 = add nsw i32 %36, %30
  %38 = icmp eq i32 %37, %27
  br i1 %38, label %42, label %39

39:                                               ; preds = %33
  %40 = add nuw nsw i64 %34, 1
  %41 = icmp eq i64 %40, %32
  br i1 %41, label %44, label %33, !llvm.loop !11

42:                                               ; preds = %33
  %43 = trunc i64 %34 to i32
  br label %44

44:                                               ; preds = %39, %42, %24
  %45 = phi i32 [ 0, %24 ], [ %43, %42 ], [ %25, %39 ]
  %46 = zext i32 %45 to i64
  %47 = getelementptr inbounds [999 x i32], [999 x i32]* %4, i64 0, i64 %46
  %48 = load i32, i32* %47, align 4, !tbaa !5
  %49 = add nsw i32 %48, %30
  %50 = icmp eq i32 %49, %27
  br i1 %50, label %51, label %53

51:                                               ; preds = %44
  %52 = call i32 (i8*, ...) @printf(i8* nonnull dereferenceable(1) getelementptr inbounds ([4 x i8], [4 x i8]* @.str.2, i64 0, i64 0))
  br label %65

53:                                               ; preds = %44
  %54 = add nsw i32 %25, -1
  %55 = zext i32 %54 to i64
  %56 = icmp eq i64 %26, %55
  br i1 %56, label %57, label %60

57:                                               ; preds = %53
  %58 = call i32 (i8*, ...) @printf(i8* nonnull dereferenceable(1) getelementptr inbounds ([3 x i8], [3 x i8]* @.str.3, i64 0, i64 0))
  %59 = load i32, i32* %1, align 4, !tbaa !5
  br label %60

60:                                               ; preds = %53, %57
  %61 = phi i32 [ %25, %53 ], [ %59, %57 ]
  %62 = add nuw nsw i64 %26, 1
  %63 = sext i32 %61 to i64
  %64 = icmp slt i64 %62, %63
  br i1 %64, label %24, label %65, !llvm.loop !12

65:                                               ; preds = %60, %0, %12, %51
  call void @llvm.lifetime.end.p0i8(i64 3996, i8* nonnull %8) #3
  call void @llvm.lifetime.end.p0i8(i64 3996, i8* nonnull %7) #3
  call void @llvm.lifetime.end.p0i8(i64 4, i8* nonnull %6) #3
  call void @llvm.lifetime.end.p0i8(i64 4, i8* nonnull %5) #3
  ret i32 0
}

; Function Attrs: argmemonly mustprogress nofree nosync nounwind willreturn
declare void @llvm.lifetime.start.p0i8(i64 immarg, i8* nocapture) #1

; Function Attrs: nofree nounwind
declare noundef i32 @__isoc99_scanf(i8* nocapture noundef readonly, ...) local_unnamed_addr #2

; Function Attrs: nofree nounwind
declare noundef i32 @printf(i8* nocapture noundef readonly, ...) local_unnamed_addr #2

; Function Attrs: argmemonly mustprogress nofree nosync nounwind willreturn
declare void @llvm.lifetime.end.p0i8(i64 immarg, i8* nocapture) #1


!llvm.module.flags = !{!0, !1, !2, !3}
!llvm.ident = !{!4}

!0 = !{i32 1, !"wchar_size", i32 4}
!1 = !{i32 7, !"PIC Level", i32 2}
!2 = !{i32 7, !"PIE Level", i32 2}
!3 = !{i32 7, !"uwtable", i32 1}
!4 = !{!"clang version 13.0.0"}
!5 = !{!6, !6, i64 0}
!6 = !{!"int", !7, i64 0}
!7 = !{!"omnipotent char", !8, i64 0}
!8 = !{!"Simple C/C++ TBAA"}
!9 = distinct !{!9, !10}
!10 = !{!"llvm.loop.mustprogress"}
!11 = distinct !{!11, !10}
!12 = distinct !{!12, !10}
